target datalayout = "e-m:e-p270:32:32-p271:32:32-p272:64:64-i64:64-i128:128-f80:128-n8:16:32:64-S128"
target triple = "x86_64-pc-linux-gnu"

%class.PacketDiagram = type <{ %class.QGraphicsView, ptr, ptr, ptr, ptr, i32, [4 x i8] }>
%class.QGraphicsView = type { %class.QAbstractScrollArea }
%class.QAbstractScrollArea = type { %class.QFrame }
%class.QFrame = type { %class.QWidget }
%class.QWidget = type { %class.QObject, %class.QPaintDevice.base, ptr }
%class.QObject = type { ptr, %class.QScopedPointer }
%class.QScopedPointer = type { ptr }
%class.QPaintDevice.base = type <{ ptr, i16 }>
%class.QList.1 = type { %struct.QArrayDataPointer.4 }
%struct.QArrayDataPointer.4 = type { ptr, ptr, i64 }
%struct._capture_file = type { ptr, i32, ptr, ptr, i8, i8, i8, i64, i16, i32, i32, i32, ptr, i32, i64, i32, i32, i32, i32, i8, i32, %struct.nstime_t, i32, ptr, ptr, ptr, i8, i8, i32, ptr, i8, i8, i8, i8, i8, i32, i32, i8, ptr, i32, i32, i8, %struct.packet_provider_data, i32, i32, %struct.epan_column_info, ptr, ptr, ptr, %struct.wtap_rec, %struct.Buffer, ptr, i64, i32 }
%struct.nstime_t = type { i64, i32 }
%struct.packet_provider_data = type { ptr, ptr, ptr, ptr, ptr, ptr }
%struct.epan_column_info = type { ptr, i32, ptr, ptr, ptr, %struct.col_expr_t, i8, ptr }
%struct.col_expr_t = type { ptr, ptr }
%struct.wtap_rec = type { i32, i32, i32, %struct.nstime_t, i32, %struct.nstime_t, i8, %union.anon, ptr, i8, %struct.Buffer, %struct.Buffer }
%union.anon = type { %struct.wtap_packet_header }
%struct.wtap_packet_header = type { i32, i32, i32, i32, %union.wtap_pseudo_header }
%union.wtap_pseudo_header = type { %struct.erf_mc_phdr }
%struct.erf_mc_phdr = type { %struct.erf_phdr, [16 x %struct.erf_ehdr], %union.anon.6 }
%struct.erf_phdr = type { i64, i8, i8, i16, i16, i16 }
%struct.erf_ehdr = type { i64 }
%union.anon.6 = type { i32 }
%struct.Buffer = type { ptr, i64, i64, i64 }
%struct.epan_dissect = type { ptr, ptr, ptr, %struct._packet_info }
%struct._packet_info = type { ptr, ptr, i32, i32, %struct.nstime_t, %struct.nstime_t, %struct.nstime_t, i8, ptr, ptr, ptr, ptr, %struct._address, %struct._address, %struct._address, %struct._address, %struct._address, %struct._address, i32, ptr, i8, [3 x i8], %struct.anon.8, i32, i32, i32, i32, ptr, i8, ptr, ptr, i16, i16, i32, i32, i16, i32, i32, ptr, ptr, ptr, i8, i8, i16, i16, i16, i32, i16, i16, ptr, ptr, ptr, ptr, ptr, i32, i32 }
%struct._address = type { i32, i32, ptr, ptr }
%struct.anon.8 = type { i8, [3 x i8] }

; Function Attrs: mustprogress nounwind null_pointer_is_valid sspstrong uwtable
define linkonce_odr noundef ptr @_ZNK17QArrayDataPointerIiEptEv(ptr noundef align 8 dereferenceable_or_null(24) %0) #8 comdat align 2 {
  %2 = alloca ptr, align 8
  store ptr %0, ptr %2, align 8
  %3 = load ptr, ptr %2, align 8
  ret ptr %3
}

; Function Attrs: mustprogress nounwind null_pointer_is_valid sspstrong uwtable
define linkonce_odr noundef i64 @_ZNK5QListIiE4sizeEv(ptr noundef align 8 dereferenceable_or_null(24) %0) #8 comdat align 2 {
  %2 = alloca ptr, align 8
  store ptr %0, ptr %2, align 8
  %3 = load ptr, ptr %2, align 8
  %4 = getelementptr inbounds nuw %class.QList.1, ptr %3, i32 0, i32 0
  %5 = call noundef ptr @_ZNK17QArrayDataPointerIiEptEv(ptr noundef align 8 dereferenceable_or_null(24) %4) #22
  %6 = getelementptr inbounds nuw %struct.QArrayDataPointer.4, ptr %5, i32 0, i32 2
  %7 = load i64, ptr %6, align 8
  ret i64 %7
}

; Function Attrs: mustprogress nounwind null_pointer_is_valid sspstrong uwtable
define linkonce_odr noundef i64 @_ZNK5QListIiE5countEv(ptr noundef align 8 dereferenceable_or_null(24) %0) #8 comdat align 2 {
  %2 = alloca ptr, align 8
  store ptr %0, ptr %2, align 8
  %3 = load ptr, ptr %2, align 8
  %4 = call noundef i64 @_ZNK5QListIiE4sizeEv(ptr noundef align 8 dereferenceable_or_null(24) %3) #22
  ret i64 %4
}

; Function Attrs: mustprogress null_pointer_is_valid sspstrong uwtable
define void @_ZN13PacketDiagram20selectedFrameChangedE5QListIiE(ptr noundef align 8 dereferenceable_or_null(76) %0, ptr noundef %1) #0 align 2 {
  %3 = alloca ptr, align 8
  %4 = alloca ptr, align 8
  store ptr %0, ptr %3, align 8
  store ptr %1, ptr %4, align 8
  %5 = load ptr, ptr %3, align 8
  %6 = call noundef i64 @_ZNK5QListIiE5countEv(ptr noundef align 8 dereferenceable_or_null(24) %1) #22
  %7 = icmp eq i64 %6, 1
  br i1 %7, label %8, label %33

8:                                                ; preds = %2
  %9 = getelementptr inbounds nuw %class.PacketDiagram, ptr %5, i32 0, i32 2
  %10 = load ptr, ptr %9, align 8
  %11 = icmp ne ptr %10, null
  br i1 %11, label %12, label %33

12:                                               ; preds = %8
  %13 = getelementptr inbounds nuw %class.PacketDiagram, ptr %5, i32 0, i32 2
  %14 = load ptr, ptr %13, align 8
  %15 = getelementptr inbounds nuw %struct._capture_file, ptr %14, i32 0, i32 47
  %16 = load ptr, ptr %15, align 8
  %17 = icmp ne ptr %16, null
  br i1 %17, label %18, label %33

18:                                               ; preds = %12
  %19 = getelementptr inbounds nuw %class.PacketDiagram, ptr %5, i32 0, i32 2
  %20 = load ptr, ptr %19, align 8
  %21 = getelementptr inbounds nuw %struct._capture_file, ptr %20, i32 0, i32 47
  %22 = load ptr, ptr %21, align 8
  %23 = getelementptr inbounds nuw %struct.epan_dissect, ptr %22, i32 0, i32 2
  %24 = load ptr, ptr %23, align 8
  %25 = icmp ne ptr %24, null
  br i1 %25, label %26, label %33

26:                                               ; preds = %18
  %27 = getelementptr inbounds nuw %class.PacketDiagram, ptr %5, i32 0, i32 2
  %28 = load ptr, ptr %27, align 8
  %29 = getelementptr inbounds nuw %struct._capture_file, ptr %28, i32 0, i32 47
  %30 = load ptr, ptr %29, align 8
  %31 = getelementptr inbounds nuw %struct.epan_dissect, ptr %30, i32 0, i32 2
  %32 = load ptr, ptr %31, align 8
  call void @_ZN13PacketDiagram11setRootNodeEP11_proto_node(ptr noundef align 8 dereferenceable_or_null(76) %5, ptr noundef %32)
  br label %34

33:                                               ; preds = %18, %12, %8, %2
  call void @_ZN13PacketDiagram11setRootNodeEP11_proto_node(ptr noundef align 8 dereferenceable_or_null(76) %5, ptr noundef null)
  br label %34

34:                                               ; preds = %33, %26
  ret void
}