; Function Attrs: mustprogress null_pointer_is_valid sspstrong uwtable
define void @_ZN13PacketDiagram20selectedFrameChangedE5QListIiE(ptr noundef align 8 dereferenceable_or_null(76) %0, ptr noundef readonly captures(none) %1) #0 align 2 personality ptr @__gxx_personality_v0 {
  %3 = getelementptr inbounds nuw i8, ptr %1, i64 16
  %4 = load i64, ptr %3, align 8
  %5 = icmp eq i64 %4, 1
  br i1 %5, label %6, label %16

6:                                                ; preds = %2
  %7 = getelementptr inbounds nuw i8, ptr %0, i64 48
  %8 = load ptr, ptr %7, align 8
  %.not = icmp eq ptr %8, null
  br i1 %.not, label %16, label %9

9:                                                ; preds = %6
  %10 = getelementptr inbounds nuw i8, ptr %8, i64 360
  %11 = load ptr, ptr %10, align 8
  %.not3 = icmp eq ptr %11, null
  br i1 %.not3, label %16, label %12

12:                                               ; preds = %9
  %13 = getelementptr inbounds nuw i8, ptr %11, i64 16
  %14 = load ptr, ptr %13, align 8
  %.not4 = icmp eq ptr %14, null
  br i1 %.not4, label %16, label %15

15:                                               ; preds = %12
  tail call void @_ZN13PacketDiagram11setRootNodeEP11_proto_node(ptr noundef align 8 dereferenceable_or_null(76) %0, ptr noundef nonnull %14)
  br label %20

16:                                               ; preds = %12, %9, %6, %2
  %17 = tail call noundef ptr @_ZNK13QGraphicsView5sceneEv(ptr noundef align 8 dereferenceable_or_null(76) %0)
  tail call void @_ZN14QGraphicsScene5clearEv(ptr noundef align 8 dereferenceable_or_null(16) %17)
  %18 = tail call noundef ptr @_ZNK19QAbstractScrollArea8viewportEv(ptr noundef align 8 dereferenceable_or_null(76) %0)
  tail call void @_ZN7QWidget6updateEv(ptr noundef align 8 dereferenceable_or_null(40) %18)
  %19 = getelementptr inbounds nuw i8, ptr %0, i64 56
  tail call void @llvm.memset.p0.i64(ptr noundef nonnull align 8 dereferenceable(20) %19, i8 0, i64 20, i1 false)
  br label %20

20:                                               ; preds = %16, %15
  ret void
}